; ModuleID = '54/133.c'
source_filename = "54/133.c"
target datalayout = "e-m:e-p270:32:32-p271:32:32-p272:64:64-i64:64-f80:128-n8:16:32:64-S128"
target triple = "x86_64-pc-linux-gnu"

@.str = private unnamed_addr constant [6 x i8] c"%d %d\00", align 1
@.str.1 = private unnamed_addr constant [4 x i8] c"%d\0A\00", align 1

; Function Attrs: noinline nounwind uwtable
define dso_local void @main() #0 {
  %1 = alloca i32, align 4
  %2 = alloca i32, align 4
  %3 = alloca i32, align 4
  %4 = alloca i32, align 4
  %5 = alloca i32, align 4
  %6 = call i32 (i8*, ...) @__isoc99_scanf(i8* getelementptr inbounds ([6 x i8], [6 x i8]* @.str, i64 0, i64 0), i32* %2, i32* %3)
  store i32 0, i32* %4, align 4
  store i32 1, i32* %1, align 4
  br label %7

7:                                                ; preds = %44, %0
  %8 = load i32, i32* %1, align 4
  %9 = load i32, i32* %2, align 4
  %10 = icmp slt i32 %8, %9
  br i1 %10, label %11, label %45

11:                                               ; preds = %7
  %12 = load i32, i32* %4, align 4
  %13 = add nsw i32 %12, 1
  store i32 %13, i32* %4, align 4
  %14 = load i32, i32* %4, align 4
  %15 = load i32, i32* %2, align 4
  %16 = mul nsw i32 %14, %15
  %17 = load i32, i32* %3, align 4
  %18 = add nsw i32 %16, %17
  store i32 %18, i32* %5, align 4
  store i32 2, i32* %1, align 4
  br label %19

19:                                               ; preds = %43, %11
  %20 = load i32, i32* %1, align 4
  %21 = load i32, i32* %2, align 4
  %22 = icmp sle i32 %20, %21
  br i1 %22, label %23, label %44

23:                                               ; preds = %19
  %24 = load i32, i32* %5, align 4
  %25 = load i32, i32* %2, align 4
  %26 = sub nsw i32 %25, 1
  %27 = srem i32 %24, %26
  %28 = icmp ne i32 %27, 0
  br i1 %28, label %29, label %32

29:                                               ; preds = %23
  %30 = load i32, i32* %1, align 4
  %31 = sub nsw i32 %30, 1
  store i32 %31, i32* %1, align 4
  br label %44

32:                                               ; preds = %23
  %33 = load i32, i32* %5, align 4
  %34 = load i32, i32* %2, align 4
  %35 = sub nsw i32 %34, 1
  %36 = sdiv i32 %33, %35
  %37 = load i32, i32* %2, align 4
  %38 = mul nsw i32 %36, %37
  %39 = load i32, i32* %3, align 4
  %40 = add nsw i32 %38, %39
  store i32 %40, i32* %5, align 4
  %41 = load i32, i32* %1, align 4
  %42 = add nsw i32 %41, 1
  store i32 %42, i32* %1, align 4
  br label %43

43:                                               ; preds = %32
  br label %19

44:                                               ; preds = %29, %19
  br label %7

45:                                               ; preds = %7
  %46 = load i32, i32* %5, align 4
  %47 = call i32 (i8*, ...) @printf(i8* getelementptr inbounds ([4 x i8], [4 x i8]* @.str.1, i64 0, i64 0), i32 %46)
  ret void
}

declare dso_local i32 @__isoc99_scanf(i8*, ...) #1

declare dso_local i32 @printf(i8*, ...) #1


!llvm.module.flags = !{!0}
!llvm.ident = !{!1}

!0 = !{i32 1, !"wchar_size", i32 4}
!1 = !{!"clang version 10.0.0-4ubuntu1 "}
