; ModuleID = 'source-C-CXX/53/133.c'
source_filename = "source-C-CXX/53/133.c"
target datalayout = "e-m:e-p270:32:32-p271:32:32-p272:64:64-i64:64-f80:128-n8:16:32:64-S128"
target triple = "x86_64-pc-linux-gnu"

@.str = private unnamed_addr constant [6 x i8] c"%d %d\00", align 1
@.str.1 = private unnamed_addr constant [4 x i8] c"%d\0A\00", align 1

; Function Attrs: nofree nounwind sspstrong uwtable
define dso_local void @main() local_unnamed_addr #0 {
  %1 = alloca i32, align 4
  %2 = alloca i32, align 4
  %3 = bitcast i32* %1 to i8*
  call void @llvm.lifetime.start.p0i8(i64 4, i8* nonnull %3) #3
  %4 = bitcast i32* %2 to i8*
  call void @llvm.lifetime.start.p0i8(i64 4, i8* nonnull %4) #3
  %5 = call i32 (i8*, ...) @__isoc99_scanf(i8* getelementptr inbounds ([6 x i8], [6 x i8]* @.str, i64 0, i64 0), i32* nonnull %1, i32* nonnull %2)
  %6 = load i32, i32* %1, align 4, !tbaa !5
  %7 = load i32, i32* %2, align 4
  %8 = add nsw i32 %6, -1
  %9 = icmp sgt i32 %6, 1
  br i1 %9, label %10, label %34

10:                                               ; preds = %0
  %11 = add nuw i32 %6, 1
  br label %12

12:                                               ; preds = %10, %30
  %13 = phi i32 [ %14, %30 ], [ 0, %10 ]
  %14 = add nuw nsw i32 %13, 1
  %15 = mul nsw i32 %14, %6
  %16 = add nsw i32 %15, %7
  br label %17

17:                                               ; preds = %12, %25
  %18 = phi i32 [ %16, %12 ], [ %28, %25 ]
  %19 = phi i32 [ 2, %12 ], [ %26, %25 ]
  %20 = srem i32 %18, %8
  %21 = sdiv i32 %18, %8
  %22 = icmp eq i32 %20, 0
  br i1 %22, label %25, label %23

23:                                               ; preds = %17
  %24 = add nsw i32 %19, -1
  br label %30

25:                                               ; preds = %17
  %26 = add nuw i32 %19, 1
  %27 = mul nsw i32 %21, %6
  %28 = add nsw i32 %27, %7
  %29 = icmp eq i32 %19, %6
  br i1 %29, label %30, label %17, !llvm.loop !9

30:                                               ; preds = %25, %23
  %31 = phi i32 [ %18, %23 ], [ %28, %25 ]
  %32 = phi i32 [ %24, %23 ], [ %11, %25 ]
  %33 = icmp slt i32 %32, %6
  br i1 %33, label %12, label %34, !llvm.loop !11

34:                                               ; preds = %30, %0
  %35 = phi i32 [ undef, %0 ], [ %31, %30 ]
  %36 = call i32 (i8*, ...) @printf(i8* nonnull dereferenceable(1) getelementptr inbounds ([4 x i8], [4 x i8]* @.str.1, i64 0, i64 0), i32 %35)
  call void @llvm.lifetime.end.p0i8(i64 4, i8* nonnull %4) #3
  call void @llvm.lifetime.end.p0i8(i64 4, i8* nonnull %3) #3
  ret void
}

; Function Attrs: argmemonly mustprogress nofree nosync nounwind willreturn
declare void @llvm.lifetime.start.p0i8(i64 immarg, i8* nocapture) #1

; Function Attrs: nofree nounwind
declare noundef i32 @__isoc99_scanf(i8* nocapture noundef readonly, ...) local_unnamed_addr #2

; Function Attrs: nofree nounwind
declare noundef i32 @printf(i8* nocapture noundef readonly, ...) local_unnamed_addr #2

; Function Attrs: argmemonly mustprogress nofree nosync nounwind willreturn
declare void @llvm.lifetime.end.p0i8(i64 immarg, i8* nocapture) #1


!llvm.module.flags = !{!0, !1, !2, !3}
!llvm.ident = !{!4}

!0 = !{i32 1, !"wchar_size", i32 4}
!1 = !{i32 7, !"PIC Level", i32 2}
!2 = !{i32 7, !"PIE Level", i32 2}
!3 = !{i32 7, !"uwtable", i32 1}
!4 = !{!"clang version 13.0.0"}
!5 = !{!6, !6, i64 0}
!6 = !{!"int", !7, i64 0}
!7 = !{!"omnipotent char", !8, i64 0}
!8 = !{!"Simple C/C++ TBAA"}
!9 = distinct !{!9, !10}
!10 = !{!"llvm.loop.mustprogress"}
!11 = distinct !{!11, !10}
